target datalayout = "e-m:e-p270:32:32-p271:32:32-p272:64:64-i64:64-i128:128-f80:128-n8:16:32:64-S128"
target triple = "x86_64-pc-linux-gnu"

@stderr = external global ptr, align 8
@.str.5 = private unnamed_addr constant [19 x i8] c"1.0.5, 10-Dec-2007\00", align 1

; Function Attrs: nounwind uwtable
define ptr @BZ2_bzlibVersion() #0 {
  ret ptr @.str.5
}

; Function Attrs: nounwind uwtable
define void @BZ2_bz__AssertH__fail(i32 noundef %0) #0 {
  %2 = alloca i32, align 4
  store i32 %0, ptr %2, align 4
  %3 = load ptr, ptr @stderr, align 8
  %4 = load i32, ptr %2, align 4
  %5 = call ptr @BZ2_bzlibVersion()
  %6 = call i32 (ptr, ptr, ...) @fprintf(ptr noundef %3, ptr noundef @.str, i32 noundef %4, ptr noundef %5) #8
  %7 = load i32, ptr %2, align 4
  %8 = icmp eq i32 %7, 1007
  br i1 %8, label %9, label %12

9:                                                ; preds = %1
  %10 = load ptr, ptr @stderr, align 8
  %11 = call i32 (ptr, ptr, ...) @fprintf(ptr noundef %10, ptr noundef @.str.1) #8
  br label %12

12:                                               ; preds = %9, %1
  call void @exit(i32 noundef 3) #9
  unreachable
}