; Function Attrs: cold nofree noreturn nounwind uwtable
define void @BZ2_bz__AssertH__fail(i32 noundef %0) local_unnamed_addr #0 {
  %2 = load ptr, ptr @stderr, align 8
  %3 = tail call i32 (ptr, ptr, ...) @fprintf(ptr noundef %2, ptr noundef nonnull @.str, i32 noundef %0, ptr noundef nonnull @.str.5) #19
  %4 = icmp eq i32 %0, 1007
  br i1 %4, label %5, label %8

5:                                                ; preds = %1
  %6 = load ptr, ptr @stderr, align 8
  %7 = tail call i64 @fwrite(ptr nonnull @.str.1, i64 1056, i64 1, ptr %6) #20
  br label %8

8:                                                ; preds = %5, %1
  tail call void @exit(i32 noundef 3) #21
  unreachable
}